; Function Attrs: nounwind uwtable
define void @Gia_Iso2ManCollectOrder(ptr noundef %0, ptr noundef readonly captures(none) %1, i32 noundef %2, ptr noundef initializes((4, 8)) %3, ptr noundef %4, ptr noundef %5) local_unnamed_addr #0 {
  %7 = getelementptr inbounds nuw i8, ptr %3, i64 4
  store i32 0, ptr %7, align 4, !tbaa !28
  %8 = icmp sgt i32 %2, 0
  br i1 %8, label %.lr.ph, label %._crit_edge

.lr.ph:                                           ; preds = %6
  %9 = getelementptr i8, ptr %0, i64 72
  %.phi.trans.insert.i = getelementptr inbounds nuw i8, ptr %3, i64 8
  %wide.trip.count = zext nneg i32 %2 to i64
  br label %10

10:                                               ; preds = %.lr.ph, %Vec_IntPush.exit
  %indvars.iv = phi i64 [ 0, %.lr.ph ], [ %indvars.iv.next, %Vec_IntPush.exit ]
  %11 = getelementptr inbounds nuw i32, ptr %1, i64 %indvars.iv
  %12 = load i32, ptr %11, align 4, !tbaa !34
  %.val23 = load ptr, ptr %9, align 8, !tbaa !30
  %13 = getelementptr i8, ptr %.val23, i64 8
  %.val23.val = load ptr, ptr %13, align 8, !tbaa !32
  %14 = sext i32 %12 to i64
  %15 = getelementptr inbounds i32, ptr %.val23.val, i64 %14
  %16 = load i32, ptr %15, align 4, !tbaa !34
  %17 = load i32, ptr %7, align 4, !tbaa !28
  %18 = load i32, ptr %3, align 8, !tbaa !31
  %19 = icmp eq i32 %17, %18
  br i1 %19, label %20, label %.Vec_IntGrow.exit10_crit_edge.i

.Vec_IntGrow.exit10_crit_edge.i:                  ; preds = %10
  %.pre.i = load ptr, ptr %.phi.trans.insert.i, align 8, !tbaa !32
  br label %Vec_IntPush.exit

20:                                               ; preds = %10
  %21 = icmp slt i32 %17, 16
  br i1 %21, label %22, label %29

22:                                               ; preds = %20
  %23 = load ptr, ptr %.phi.trans.insert.i, align 8, !tbaa !32
  %.not9.i.i = icmp eq ptr %23, null
  br i1 %.not9.i.i, label %26, label %24

24:                                               ; preds = %22
  %25 = tail call dereferenceable_or_null(64) ptr @realloc(ptr noundef nonnull %23, i64 noundef 64) #25
  br label %Vec_IntGrow.exit.i

26:                                               ; preds = %22
  %27 = tail call noalias dereferenceable_or_null(64) ptr @malloc(i64 noundef 64) #24
  br label %Vec_IntGrow.exit.i

Vec_IntGrow.exit.i:                               ; preds = %26, %24
  %28 = phi ptr [ %25, %24 ], [ %27, %26 ]
  store ptr %28, ptr %.phi.trans.insert.i, align 8, !tbaa !32
  store i32 16, ptr %3, align 8, !tbaa !31
  br label %Vec_IntPush.exit

29:                                               ; preds = %20
  %30 = shl nuw nsw i32 %17, 1
  %31 = load ptr, ptr %.phi.trans.insert.i, align 8, !tbaa !32
  %.not9.i9.i = icmp eq ptr %31, null
  %32 = zext nneg i32 %30 to i64
  %33 = shl nuw nsw i64 %32, 2
  br i1 %.not9.i9.i, label %36, label %34

34:                                               ; preds = %29
  %35 = tail call ptr @realloc(ptr noundef nonnull %31, i64 noundef %33) #25
  br label %38

36:                                               ; preds = %29
  %37 = tail call noalias ptr @malloc(i64 noundef %33) #24
  br label %38

38:                                               ; preds = %36, %34
  %39 = phi ptr [ %35, %34 ], [ %37, %36 ]
  store ptr %39, ptr %.phi.trans.insert.i, align 8, !tbaa !32
  store i32 %30, ptr %3, align 8, !tbaa !31
  br label %Vec_IntPush.exit

Vec_IntPush.exit:                                 ; preds = %.Vec_IntGrow.exit10_crit_edge.i, %Vec_IntGrow.exit.i, %38
  %40 = phi ptr [ %.pre.i, %.Vec_IntGrow.exit10_crit_edge.i ], [ %39, %38 ], [ %28, %Vec_IntGrow.exit.i ]
  %41 = load i32, ptr %7, align 4, !tbaa !28
  %42 = add nsw i32 %41, 1
  store i32 %42, ptr %7, align 4, !tbaa !28
  %43 = sext i32 %41 to i64
  %44 = getelementptr inbounds i32, ptr %40, i64 %43
  store i32 %16, ptr %44, align 4, !tbaa !34
  %indvars.iv.next = add nuw nsw i64 %indvars.iv, 1
  %exitcond.not = icmp eq i64 %indvars.iv.next, %wide.trip.count
  br i1 %exitcond.not, label %._crit_edge, label %10, !llvm.loop !103

._crit_edge:                                      ; preds = %Vec_IntPush.exit, %6
  %45 = getelementptr inbounds nuw i8, ptr %4, i64 4
  store i32 0, ptr %45, align 4, !tbaa !28
  tail call void @Gia_ManIncrementTravId(ptr noundef %0) #26
  %.val25 = load i32, ptr %7, align 4, !tbaa !28
  %46 = icmp sgt i32 %.val25, 0
  br i1 %46, label %.lr.ph28, label %.critedge

.lr.ph28:                                         ; preds = %._crit_edge
  %47 = getelementptr i8, ptr %3, i64 8
  br label %48

48:                                               ; preds = %.lr.ph28, %48
  %indvars.iv30 = phi i64 [ 0, %.lr.ph28 ], [ %indvars.iv.next31, %48 ]
  %.val20 = load ptr, ptr %47, align 8, !tbaa !32
  %49 = getelementptr inbounds nuw i32, ptr %.val20, i64 %indvars.iv30
  %50 = load i32, ptr %49, align 4, !tbaa !34
  tail call void @Gia_Iso2ManCollectOrder_rec(ptr noundef %0, i32 noundef %50, ptr noundef nonnull %3, ptr noundef %4, ptr noundef %5)
  %indvars.iv.next31 = add nuw nsw i64 %indvars.iv30, 1
  %.val = load i32, ptr %7, align 4, !tbaa !28
  %51 = sext i32 %.val to i64
  %52 = icmp slt i64 %indvars.iv.next31, %51
  br i1 %52, label %48, label %.critedge, !llvm.loop !104

.critedge:                                        ; preds = %48, %._crit_edge
  ret void
}